target datalayout = "e-m:e-p270:32:32-p271:32:32-p272:64:64-i64:64-i128:128-f80:128-n8:16:32:64-S128"
target triple = "x86_64-pc-linux-gnu"

%class.QString = type { %struct.QArrayDataPointer }
%struct.QArrayDataPointer = type { ptr, ptr, i64 }
%class.QFont = type <{ %class.QExplicitlySharedDataPointer, i32, [4 x i8] }>
%class.QExplicitlySharedDataPointer = type { ptr }
%class.PrintDialog = type <{ %class.QDialog, ptr, %class.QPrinter, ptr, ptr, ptr, ptr, %class.QFont, %class.QFont, ptr, %struct.print_args_t, %struct.print_stream_ops, %struct.print_stream, i32, i8, [3 x i8] }>
%class.QDialog = type { %class.QWidget }
%class.QWidget = type { %class.QObject, %class.QPaintDevice.base, ptr }
%class.QObject = type { ptr, %class.QScopedPointer }
%class.QScopedPointer = type { ptr }
%class.QPaintDevice.base = type <{ ptr, i16 }>
%class.QPrinter = type { %class.QPagedPaintDevice, %class.QScopedPointer.0 }
%class.QPagedPaintDevice = type { %class.QPaintDevice.base, ptr }
%class.QScopedPointer.0 = type { ptr }
%struct.print_args_t = type { ptr, i32, i32, ptr, ptr, %struct.packet_range_tag, i32, i32, i32, i32, i32, i32 }
%struct.packet_range_tag = type { i32, i32, i32, i32, ptr, i32, ptr, i32, ptr, i32, i32, i32, i32, i32, i32, i32, i32, i32, i32, i32, i32, i32, i32, i32, i32, i32, i32, i32, i32, i32, i32, i32, i32, i32, i32, i32, ptr, ptr, ptr, ptr, ptr, ptr, ptr, ptr, i32, i32 }
%struct.print_stream_ops = type { ptr, ptr, ptr, ptr, ptr, ptr, ptr }
%struct.print_stream = type { ptr, ptr }
%class.QKeyEvent = type <{ %class.QInputEvent, %class.QString, i32, i32, i32, i32, i16, [6 x i8] }>
%class.QInputEvent = type { %class.QEvent, ptr, i64, %class.QFlags.12, i32 }
%class.QEvent = type { ptr, i16, i8, i8, i8, i8, i16 }
%class.QFlags.12 = type { i32 }

; Function Attrs: mustprogress nounwind uwtable
define linkonce_odr noundef i32 @_ZNK9QKeyEvent3keyEv(ptr noundef nonnull align 8 dereferenceable(82) %0) #1 comdat align 2 {
  %2 = alloca ptr, align 8
  store ptr %0, ptr %2, align 8
  %3 = load ptr, ptr %2, align 8
  %4 = getelementptr inbounds %class.QKeyEvent, ptr %3, i32 0, i32 2
  %5 = load i32, ptr %4, align 8
  ret i32 %5
}

; Function Attrs: mustprogress uwtable
define void @_ZN11PrintDialog13keyPressEventEP9QKeyEvent(ptr noundef nonnull align 8 dereferenceable(525) %0, ptr noundef %1) unnamed_addr #0 align 2 {
  %3 = alloca ptr, align 8
  %4 = alloca ptr, align 8
  store ptr %0, ptr %3, align 8
  store ptr %1, ptr %4, align 8
  %5 = load ptr, ptr %3, align 8
  %6 = load ptr, ptr %4, align 8
  %7 = call noundef i32 @_ZNK9QKeyEvent3keyEv(ptr noundef nonnull align 8 dereferenceable(82) %6)
  switch i32 %7, label %23 [
    i32 45, label %8
    i32 95, label %8
    i32 43, label %11
    i32 61, label %11
    i32 48, label %14
    i32 41, label %14
  ]

8:                                                ; preds = %2, %2
  %9 = getelementptr inbounds %class.PrintDialog, ptr %5, i32 0, i32 5
  %10 = load ptr, ptr %9, align 8
  call void @_ZN19QPrintPreviewWidget7zoomOutEd(ptr noundef nonnull align 8 dereferenceable(40) %10, double noundef 1.100000e+00)
  br label %23

11:                                               ; preds = %2, %2
  %12 = getelementptr inbounds %class.PrintDialog, ptr %5, i32 0, i32 5
  %13 = load ptr, ptr %12, align 8
  call void @_ZN19QPrintPreviewWidget6zoomInEd(ptr noundef nonnull align 8 dereferenceable(40) %13, double noundef 1.100000e+00)
  br label %23

14:                                               ; preds = %2, %2
  %15 = getelementptr inbounds %class.PrintDialog, ptr %5, i32 0, i32 5
  %16 = load ptr, ptr %15, align 8
  call void @_ZN7QWidget17setUpdatesEnabledEb(ptr noundef nonnull align 8 dereferenceable(40) %16, i1 noundef zeroext false)
  %17 = getelementptr inbounds %class.PrintDialog, ptr %5, i32 0, i32 5
  %18 = load ptr, ptr %17, align 8
  call void @_ZN19QPrintPreviewWidget13setZoomFactorEd(ptr noundef nonnull align 8 dereferenceable(40) %18, double noundef 1.000000e+00)
  %19 = getelementptr inbounds %class.PrintDialog, ptr %5, i32 0, i32 5
  %20 = load ptr, ptr %19, align 8
  call void @_ZN19QPrintPreviewWidget9fitInViewEv(ptr noundef nonnull align 8 dereferenceable(40) %20)
  %21 = getelementptr inbounds %class.PrintDialog, ptr %5, i32 0, i32 5
  %22 = load ptr, ptr %21, align 8
  call void @_ZN7QWidget17setUpdatesEnabledEb(ptr noundef nonnull align 8 dereferenceable(40) %22, i1 noundef zeroext true)
  br label %23

23:                                               ; preds = %14, %11, %8, %2
  %24 = load ptr, ptr %4, align 8
  call void @_ZN7QDialog13keyPressEventEP9QKeyEvent(ptr noundef nonnull align 8 dereferenceable(40) %5, ptr noundef %24)
  ret void
}