; Function Attrs: mustprogress uwtable
define void @_ZN11PrintDialog13keyPressEventEP9QKeyEvent(ptr noundef nonnull align 8 dereferenceable(525) %0, ptr noundef %1) unnamed_addr #0 align 2 {
  %3 = getelementptr inbounds i8, ptr %1, i64 64
  %4 = load i32, ptr %3, align 8
  switch i32 %4, label %17 [
    i32 45, label %5
    i32 95, label %5
    i32 43, label %8
    i32 61, label %8
    i32 48, label %11
    i32 41, label %11
  ]

5:                                                ; preds = %2, %2
  %6 = getelementptr inbounds i8, ptr %0, i64 96
  %7 = load ptr, ptr %6, align 8
  tail call void @_ZN19QPrintPreviewWidget7zoomOutEd(ptr noundef nonnull align 8 dereferenceable(40) %7, double noundef 1.100000e+00)
  br label %17

8:                                                ; preds = %2, %2
  %9 = getelementptr inbounds i8, ptr %0, i64 96
  %10 = load ptr, ptr %9, align 8
  tail call void @_ZN19QPrintPreviewWidget6zoomInEd(ptr noundef nonnull align 8 dereferenceable(40) %10, double noundef 1.100000e+00)
  br label %17

11:                                               ; preds = %2, %2
  %12 = getelementptr inbounds i8, ptr %0, i64 96
  %13 = load ptr, ptr %12, align 8
  tail call void @_ZN7QWidget17setUpdatesEnabledEb(ptr noundef nonnull align 8 dereferenceable(40) %13, i1 noundef zeroext false)
  %14 = load ptr, ptr %12, align 8
  tail call void @_ZN19QPrintPreviewWidget13setZoomFactorEd(ptr noundef nonnull align 8 dereferenceable(40) %14, double noundef 1.000000e+00)
  %15 = load ptr, ptr %12, align 8
  tail call void @_ZN19QPrintPreviewWidget9fitInViewEv(ptr noundef nonnull align 8 dereferenceable(40) %15)
  %16 = load ptr, ptr %12, align 8
  tail call void @_ZN7QWidget17setUpdatesEnabledEb(ptr noundef nonnull align 8 dereferenceable(40) %16, i1 noundef zeroext true)
  br label %17

17:                                               ; preds = %11, %8, %5, %2
  tail call void @_ZN7QDialog13keyPressEventEP9QKeyEvent(ptr noundef nonnull align 8 dereferenceable(40) %0, ptr noundef nonnull %1)
  ret void
}